target datalayout = "e-m:e-p270:32:32-p271:32:32-p272:64:64-i64:64-i128:128-f80:128-n8:16:32:64-S128"
target triple = "x86_64-unknown-linux-gnu"

%"class.cvc5::internal::NodeTemplate" = type { ptr }
%"class.std::__cxx11::basic_string" = type { %"struct.std::__cxx11::basic_string<char>::_Alloc_hider", i64, %union.anon }
%"struct.std::__cxx11::basic_string<char>::_Alloc_hider" = type { ptr }
%union.anon = type { i64, [8 x i8] }
%"class.cvc5::internal::theory::OutputChannel::Statistics" = type { %"class.cvc5::internal::IntStat", %"class.cvc5::internal::IntStat", %"class.cvc5::internal::IntStat", %"class.cvc5::internal::IntStat", %"class.cvc5::internal::IntStat", %"class.cvc5::internal::IntStat" }
%"class.cvc5::internal::IntStat" = type { %"class.cvc5::internal::ValueStat" }
%"class.cvc5::internal::ValueStat" = type { ptr }
%"class.cvc5::internal::theory::OutputChannel" = type <{ ptr, ptr, %"class.std::__cxx11::basic_string", %"class.cvc5::internal::theory::OutputChannel::Statistics", i32, [4 x i8] }>
%"class.cvc5::internal::TheoryEngine" = type { %"class.cvc5::internal::EnvObj", ptr, [14 x ptr], %"class.std::shared_ptr", %"class.std::shared_ptr.5", %"class.std::unique_ptr.8", ptr, ptr, %"class.std::unique_ptr.16", %"class.std::unique_ptr.24", [14 x ptr], %"class.cvc5::context::CDO", %"class.cvc5::context::CDO", %"class.cvc5::context::CDO.32", %"class.cvc5::context::CDO.34", %"class.cvc5::context::CDO", %"class.cvc5::context::CDO.32", %"class.cvc5::context::CDO.34", %"class.cvc5::context::CDHashMap", %"class.cvc5::context::CDO.42", %"class.cvc5::context::CDList", %"class.cvc5::context::CDO.46", i8, i8, %"class.cvc5::internal::AtomRequests", %"class.std::unique_ptr.75", %"class.cvc5::internal::theory::TheoryEngineStatistics", %"class.cvc5::internal::NodeTemplate", %"class.cvc5::internal::NodeTemplate", i8, %"class.std::queue", i8, [7 x i8], %"class.cvc5::context::CDO", %"class.std::unique_ptr.83", %"class.std::vector.91" }
%"class.cvc5::internal::EnvObj" = type { ptr, ptr }
%"class.std::shared_ptr" = type { %"class.std::__shared_ptr" }
%"class.std::__shared_ptr" = type { ptr, %"class.std::__shared_count" }
%"class.std::__shared_count" = type { ptr }
%"class.std::shared_ptr.5" = type { %"class.std::__shared_ptr.6" }
%"class.std::__shared_ptr.6" = type { ptr, %"class.std::__shared_count" }
%"class.std::unique_ptr.8" = type { %"struct.std::__uniq_ptr_data.9" }
%"struct.std::__uniq_ptr_data.9" = type { %"class.std::__uniq_ptr_impl.10" }
%"class.std::__uniq_ptr_impl.10" = type { %"class.std::tuple.11" }
%"class.std::tuple.11" = type { %"struct.std::_Tuple_impl.12" }
%"struct.std::_Tuple_impl.12" = type { %"struct.std::_Head_base.15" }
%"struct.std::_Head_base.15" = type { ptr }
%"class.std::unique_ptr.16" = type { %"struct.std::__uniq_ptr_data.17" }
%"struct.std::__uniq_ptr_data.17" = type { %"class.std::__uniq_ptr_impl.18" }
%"class.std::__uniq_ptr_impl.18" = type { %"class.std::tuple.19" }
%"class.std::tuple.19" = type { %"struct.std::_Tuple_impl.20" }
%"struct.std::_Tuple_impl.20" = type { %"struct.std::_Head_base.23" }
%"struct.std::_Head_base.23" = type { ptr }
%"class.std::unique_ptr.24" = type { %"struct.std::__uniq_ptr_data.25" }
%"struct.std::__uniq_ptr_data.25" = type { %"class.std::__uniq_ptr_impl.26" }
%"class.std::__uniq_ptr_impl.26" = type { %"class.std::tuple.27" }
%"class.std::tuple.27" = type { %"struct.std::_Tuple_impl.28" }
%"struct.std::_Tuple_impl.28" = type { %"struct.std::_Head_base.31" }
%"struct.std::_Head_base.31" = type { ptr }
%"class.cvc5::context::CDO.32" = type <{ %"class.cvc5::context::ContextObj", i32, [4 x i8] }>
%"class.cvc5::context::ContextObj" = type { ptr, ptr, ptr, ptr, ptr }
%"class.cvc5::context::CDO.34" = type <{ %"class.cvc5::context::ContextObj", i32, [4 x i8] }>
%"class.cvc5::context::CDHashMap" = type { %"class.cvc5::context::ContextObj", %"class.std::unordered_map", ptr, ptr }
%"class.std::unordered_map" = type { %"class.std::_Hashtable" }
%"class.std::_Hashtable" = type { %"struct.std::__detail::_Hashtable_base", ptr, i64, %"struct.std::__detail::_Hash_node_base", i64, %"struct.std::__detail::_Prime_rehash_policy", ptr }
%"struct.std::__detail::_Hashtable_base" = type { %"struct.std::__detail::_Hash_code_base" }
%"struct.std::__detail::_Hash_code_base" = type { %"struct.std::__detail::_Hashtable_ebo_helper" }
%"struct.std::__detail::_Hashtable_ebo_helper" = type { %"struct.cvc5::internal::NodeTheoryPairHashFunction" }
%"struct.cvc5::internal::NodeTheoryPairHashFunction" = type { %"struct.std::hash" }
%"struct.std::hash" = type { i8 }
%"struct.std::__detail::_Hash_node_base" = type { ptr }
%"struct.std::__detail::_Prime_rehash_policy" = type { float, i64 }
%"class.cvc5::context::CDO.42" = type { %"class.cvc5::context::ContextObj", i64 }
%"class.cvc5::context::CDList" = type <{ %"class.cvc5::context::ContextObj", %"class.std::vector", i64, i8, %"class.cvc5::context::DefaultCleanUp", [6 x i8] }>
%"class.std::vector" = type { %"struct.std::_Vector_base" }
%"struct.std::_Vector_base" = type { %"struct.std::_Vector_base<cvc5::internal::NodeTemplate<false>, std::allocator<cvc5::internal::NodeTemplate<false>>>::_Vector_impl" }
%"struct.std::_Vector_base<cvc5::internal::NodeTemplate<false>, std::allocator<cvc5::internal::NodeTemplate<false>>>::_Vector_impl" = type { %"struct.std::_Vector_base<cvc5::internal::NodeTemplate<false>, std::allocator<cvc5::internal::NodeTemplate<false>>>::_Vector_impl_data" }
%"struct.std::_Vector_base<cvc5::internal::NodeTemplate<false>, std::allocator<cvc5::internal::NodeTemplate<false>>>::_Vector_impl_data" = type { ptr, ptr, ptr }
%"class.cvc5::context::DefaultCleanUp" = type { i8 }
%"class.cvc5::context::CDO.46" = type <{ %"class.cvc5::context::ContextObj", i32, [4 x i8] }>
%"class.cvc5::internal::AtomRequests" = type { %"class.cvc5::context::CDHashSet", %"class.cvc5::context::CDList.48", %"class.cvc5::context::CDHashMap.56" }
%"class.cvc5::context::CDHashSet" = type { %"class.cvc5::context::CDInsertHashMap" }
%"class.cvc5::context::CDInsertHashMap" = type { %"class.cvc5::context::ContextObj", ptr, i64 }
%"class.cvc5::context::CDList.48" = type <{ %"class.cvc5::context::ContextObj", %"class.std::vector.49", i64, i8, %"class.cvc5::context::DefaultCleanUp.54", [6 x i8] }>
%"class.std::vector.49" = type { %"struct.std::_Vector_base.50" }
%"struct.std::_Vector_base.50" = type { %"struct.std::_Vector_base<cvc5::internal::AtomRequests::Element, std::allocator<cvc5::internal::AtomRequests::Element>>::_Vector_impl" }
%"struct.std::_Vector_base<cvc5::internal::AtomRequests::Element, std::allocator<cvc5::internal::AtomRequests::Element>>::_Vector_impl" = type { %"struct.std::_Vector_base<cvc5::internal::AtomRequests::Element, std::allocator<cvc5::internal::AtomRequests::Element>>::_Vector_impl_data" }
%"struct.std::_Vector_base<cvc5::internal::AtomRequests::Element, std::allocator<cvc5::internal::AtomRequests::Element>>::_Vector_impl_data" = type { ptr, ptr, ptr }
%"class.cvc5::context::DefaultCleanUp.54" = type { i8 }
%"class.cvc5::context::CDHashMap.56" = type { %"class.cvc5::context::ContextObj", %"class.std::unordered_map.57", ptr, ptr }
%"class.std::unordered_map.57" = type { %"class.std::_Hashtable.58" }
%"class.std::_Hashtable.58" = type { ptr, i64, %"struct.std::__detail::_Hash_node_base", i64, %"struct.std::__detail::_Prime_rehash_policy", ptr }
%"class.std::unique_ptr.75" = type { %"struct.std::__uniq_ptr_data.76" }
%"struct.std::__uniq_ptr_data.76" = type { %"class.std::__uniq_ptr_impl.77" }
%"class.std::__uniq_ptr_impl.77" = type { %"class.std::tuple.78" }
%"class.std::tuple.78" = type { %"struct.std::_Tuple_impl.79" }
%"struct.std::_Tuple_impl.79" = type { %"struct.std::_Head_base.82" }
%"struct.std::_Head_base.82" = type { ptr }
%"class.cvc5::internal::theory::TheoryEngineStatistics" = type { %"class.cvc5::internal::TimerStat", %"class.cvc5::internal::IntStat", %"class.cvc5::internal::IntStat", %"class.cvc5::internal::IntStat", %"class.cvc5::internal::IntStat" }
%"class.cvc5::internal::TimerStat" = type { ptr }
%"class.std::queue" = type { %"class.std::deque" }
%"class.std::deque" = type { %"class.std::_Deque_base" }
%"class.std::_Deque_base" = type { %"struct.std::_Deque_base<cvc5::internal::NodeTemplate<false>, std::allocator<cvc5::internal::NodeTemplate<false>>>::_Deque_impl" }
%"struct.std::_Deque_base<cvc5::internal::NodeTemplate<false>, std::allocator<cvc5::internal::NodeTemplate<false>>>::_Deque_impl" = type { %"struct.std::_Deque_base<cvc5::internal::NodeTemplate<false>, std::allocator<cvc5::internal::NodeTemplate<false>>>::_Deque_impl_data" }
%"struct.std::_Deque_base<cvc5::internal::NodeTemplate<false>, std::allocator<cvc5::internal::NodeTemplate<false>>>::_Deque_impl_data" = type { ptr, i64, %"struct.std::_Deque_iterator", %"struct.std::_Deque_iterator" }
%"struct.std::_Deque_iterator" = type { ptr, ptr, ptr, ptr }
%"class.cvc5::context::CDO" = type <{ %"class.cvc5::context::ContextObj", i8, [7 x i8] }>
%"class.std::unique_ptr.83" = type { %"struct.std::__uniq_ptr_data.84" }
%"struct.std::__uniq_ptr_data.84" = type { %"class.std::__uniq_ptr_impl.85" }
%"class.std::__uniq_ptr_impl.85" = type { %"class.std::tuple.86" }
%"class.std::tuple.86" = type { %"struct.std::_Tuple_impl.87" }
%"struct.std::_Tuple_impl.87" = type { %"struct.std::_Head_base.90" }
%"struct.std::_Head_base.90" = type { ptr }
%"class.std::vector.91" = type { %"struct.std::_Vector_base.92" }
%"struct.std::_Vector_base.92" = type { %"struct.std::_Vector_base<cvc5::internal::theory::TheoryEngineModule *, std::allocator<cvc5::internal::theory::TheoryEngineModule *>>::_Vector_impl" }
%"struct.std::_Vector_base<cvc5::internal::theory::TheoryEngineModule *, std::allocator<cvc5::internal::theory::TheoryEngineModule *>>::_Vector_impl" = type { %"struct.std::_Vector_base<cvc5::internal::theory::TheoryEngineModule *, std::allocator<cvc5::internal::theory::TheoryEngineModule *>>::_Vector_impl_data" }
%"struct.std::_Vector_base<cvc5::internal::theory::TheoryEngineModule *, std::allocator<cvc5::internal::theory::TheoryEngineModule *>>::_Vector_impl_data" = type { ptr, ptr, ptr }

@_ZTIN4cvc58internal6theory11InterruptedE = linkonce_odr hidden constant { ptr, ptr, ptr } { ptr getelementptr inbounds (ptr, ptr @_ZTVN10__cxxabiv120__si_class_type_infoE, i64 2), ptr @_ZTSN4cvc58internal6theory11InterruptedE, ptr @_ZTIN4cvc58internal9ExceptionE }, comdat, align 8

; Function Attrs: mustprogress uwtable
define hidden void @_ZN4cvc58internal6theory13OutputChannel9safePointENS0_8ResourceE(ptr noundef nonnull align 8 dereferenceable(100) %this, i32 noundef %r) unnamed_addr #5 align 2 personality ptr @__gxx_personality_v0 {
entry:
  %this.addr = alloca ptr, align 8
  %r.addr = alloca i32, align 4
  %exn.slot = alloca ptr, align 8
  %ehselector.slot = alloca i32, align 4
  store ptr %this, ptr %this.addr, align 8
  store i32 %r, ptr %r.addr, align 4
  %this1 = load ptr, ptr %this.addr, align 8
  %0 = load i32, ptr %r.addr, align 4
  %vtable = load ptr, ptr %this1, align 8
  %vfn = getelementptr inbounds ptr, ptr %vtable, i64 9
  %1 = load ptr, ptr %vfn, align 8
  call void %1(ptr noundef nonnull align 8 dereferenceable(100) %this1, i32 noundef %0)
  %d_engine = getelementptr inbounds %"class.cvc5::internal::theory::OutputChannel", ptr %this1, i32 0, i32 1
  %2 = load ptr, ptr %d_engine, align 8
  %d_interrupted = getelementptr inbounds %"class.cvc5::internal::TheoryEngine", ptr %2, i32 0, i32 29
  %3 = load i8, ptr %d_interrupted, align 8
  %tobool = trunc i8 %3 to i1
  br i1 %tobool, label %if.then, label %if.end

if.then:                                          ; preds = %entry
  %exception = call ptr @__cxa_allocate_exception(i64 40) #3
  call void @llvm.memset.p0.i64(ptr align 16 %exception, i8 0, i64 40, i1 false)
  invoke void @_ZN4cvc58internal6theory11InterruptedC2Ev(ptr noundef nonnull align 8 dereferenceable(40) %exception)
          to label %invoke.cont unwind label %lpad

invoke.cont:                                      ; preds = %if.then
  call void @__cxa_throw(ptr %exception, ptr @_ZTIN4cvc58internal6theory11InterruptedE, ptr @_ZN4cvc58internal6theory11InterruptedD2Ev) #12
  unreachable

lpad:                                             ; preds = %if.then
  %4 = landingpad { ptr, i32 }
          cleanup
  %5 = extractvalue { ptr, i32 } %4, 0
  store ptr %5, ptr %exn.slot, align 8
  %6 = extractvalue { ptr, i32 } %4, 1
  store i32 %6, ptr %ehselector.slot, align 4
  call void @__cxa_free_exception(ptr %exception) #3
  br label %eh.resume

if.end:                                           ; preds = %entry
  ret void

eh.resume:                                        ; preds = %lpad
  %exn = load ptr, ptr %exn.slot, align 8
  %sel = load i32, ptr %ehselector.slot, align 4
  %lpad.val = insertvalue { ptr, i32 } poison, ptr %exn, 0
  %lpad.val2 = insertvalue { ptr, i32 } %lpad.val, i32 %sel, 1
  resume { ptr, i32 } %lpad.val2
}