; Function Attrs: mustprogress uwtable
define hidden void @_ZN4cvc58internal6theory13OutputChannel9safePointENS0_8ResourceE(ptr noundef nonnull align 8 dereferenceable(100) %this, i32 noundef %r) unnamed_addr #3 align 2 personality ptr @__gxx_personality_v0 {
entry:
  %vtable = load ptr, ptr %this, align 8
  %vfn = getelementptr inbounds i8, ptr %vtable, i64 72
  %0 = load ptr, ptr %vfn, align 8
  tail call void %0(ptr noundef nonnull align 8 dereferenceable(100) %this, i32 noundef %r)
  %d_engine = getelementptr inbounds i8, ptr %this, i64 8
  %1 = load ptr, ptr %d_engine, align 8
  %d_interrupted = getelementptr inbounds i8, ptr %1, i64 1272
  %2 = load i8, ptr %d_interrupted, align 8
  %3 = and i8 %2, 1
  %tobool.not = icmp eq i8 %3, 0
  br i1 %tobool.not, label %if.end, label %if.then

if.then:                                          ; preds = %entry
  %exception = tail call ptr @__cxa_allocate_exception(i64 40) #11
  tail call void @llvm.memset.p0.i64(ptr noundef nonnull align 16 dereferenceable(40) %exception, i8 0, i64 40, i1 false)
  invoke void @_ZN4cvc58internal6theory11InterruptedC2Ev(ptr noundef nonnull align 8 dereferenceable(40) %exception)
          to label %invoke.cont unwind label %lpad

invoke.cont:                                      ; preds = %if.then
  tail call void @__cxa_throw(ptr nonnull %exception, ptr nonnull @_ZTIN4cvc58internal6theory11InterruptedE, ptr nonnull @_ZN4cvc58internal6theory11InterruptedD2Ev) #12
  unreachable

lpad:                                             ; preds = %if.then
  %4 = landingpad { ptr, i32 }
          cleanup
  tail call void @__cxa_free_exception(ptr nonnull %exception) #11
  resume { ptr, i32 } %4

if.end:                                           ; preds = %entry
  ret void
}